target datalayout = "e-m:e-p270:32:32-p271:32:32-p272:64:64-i64:64-i128:128-f80:128-n8:16:32:64-S128"
target triple = "x86_64-pc-linux-gnu"

%struct.AddressSpace = type { %struct.rcu_head, ptr, ptr, ptr, i32, i32, ptr, %union.anon, %union.anon.0, i64, i64, %struct.QemuMutex, %struct.anon }
%struct.rcu_head = type { ptr, ptr }
%union.anon = type { %struct.QTailQLink }
%struct.QTailQLink = type { ptr, ptr }
%union.anon.0 = type { %struct.QTailQLink }
%struct.QemuMutex = type { %union.pthread_mutex_t, i8 }
%union.pthread_mutex_t = type { %struct.__pthread_mutex_s }
%struct.__pthread_mutex_s = type { i32, i32, i32, i32, i32, i16, i16, %struct.__pthread_internal_list }
%struct.__pthread_internal_list = type { ptr, ptr }
%struct.anon = type { ptr }
%struct.VirtIOPCIProxy = type { %struct.PCIDevice, %struct.MemoryRegion, %union.anon.7, %struct.MemoryRegion, %struct.MemoryRegion, %struct.AddressSpace, %struct.AddressSpace, i32, i32, i32, i32, i32, i32, i8, i8, i32, i16, i32, i32, i32, i32, [2 x i32], [1024 x %struct.VirtIOPCIQueue], ptr, i32, %struct.VirtioBusState }
%struct.PCIDevice = type { %struct.DeviceState, i8, i8, ptr, ptr, ptr, ptr, ptr, i32, %struct.PCIReqIDCache, [64 x i8], [7 x %struct.PCIIORegion], %struct.AddressSpace, %struct.MemoryRegion, %struct.MemoryRegion, ptr, ptr, [3 x ptr], i8, i8, i32, i8, i32, ptr, ptr, ptr, ptr, ptr, ptr, %struct.MemoryRegion, %struct.MemoryRegion, %struct.MemoryRegion, ptr, i8, i32, i8, %struct.PCIExpressDevice, ptr, ptr, i32, i8, %struct.MemoryRegion, i32, ptr, ptr, ptr, ptr, i16, %struct.DOECap, ptr, i32, i32 }
%struct.DeviceState = type { %struct.Object, ptr, ptr, i8, i8, i64, i32, i8, ptr, %struct.NamedGPIOListHead, %struct.NamedClockListHead, %struct.BusStateHead, i32, i32, i32, %struct.ResettableState, ptr, %struct.MemReentrancyGuard }
%struct.Object = type { ptr, ptr, ptr, i32, ptr }
%struct.NamedGPIOListHead = type { ptr }
%struct.NamedClockListHead = type { ptr }
%struct.BusStateHead = type { ptr }
%struct.ResettableState = type { i32, i8, i8 }
%struct.MemReentrancyGuard = type { i8 }
%struct.PCIReqIDCache = type { ptr, i32 }
%struct.PCIIORegion = type { i64, i64, i8, ptr, ptr }
%struct.PCIExpressDevice = type { i8, i8, i8, i16, %struct.PCIEAERLog, i16, i16, i16, %struct.PCIESriovPF, %struct.PCIESriovVF }
%struct.PCIEAERLog = type { i16, i16, ptr }
%struct.PCIESriovPF = type { i16, [7 x i8], ptr, ptr }
%struct.PCIESriovVF = type { ptr, i16 }
%struct.DOECap = type { ptr, i16, %struct.anon.4, %struct.anon.5, %struct.anon.6, ptr, ptr, i32, i32, i32, ptr, i16, i32 }
%struct.anon.4 = type { i8, i16 }
%struct.anon.5 = type { i8, i8, i8 }
%struct.anon.6 = type { i8, i8, i8, i8 }
%union.anon.7 = type { %struct.anon.8 }
%struct.anon.8 = type { %struct.VirtIOPCIRegion, %struct.VirtIOPCIRegion, %struct.VirtIOPCIRegion, %struct.VirtIOPCIRegion, %struct.VirtIOPCIRegion }
%struct.VirtIOPCIRegion = type { %struct.MemoryRegion, i32, i32, i32 }
%struct.MemoryRegion = type { %struct.Object, i8, i8, i8, i8, i8, i8, i8, i8, i8, i8, ptr, ptr, ptr, ptr, ptr, ptr, i32, i128, i64, ptr, i64, i8, i8, i8, i8, ptr, i64, i32, %union.anon.1, %union.anon.2, %union.anon.3, ptr, i32, ptr, ptr, i8 }
%union.anon.1 = type { %struct.QTailQLink }
%union.anon.2 = type { %struct.QTailQLink }
%union.anon.3 = type { %struct.QTailQLink }
%struct.VirtIOPCIQueue = type { i16, i8, i8, [2 x i32], [2 x i32], [2 x i32] }
%struct.VirtioBusState = type { %struct.BusState, i8, i32 }
%struct.BusState = type { %struct.Object, ptr, ptr, ptr, i32, i8, i8, i32, %union.BusChildHead, %struct.BusStateEntry, %struct.ResettableState }
%union.BusChildHead = type { %struct.QTailQLink }
%struct.BusStateEntry = type { ptr, ptr }
%struct.BusChild = type { %struct.rcu_head, ptr, i32, %union.anon.13 }
%union.anon.13 = type { %struct.QTailQLink }

; Function Attrs: inlinehint nounwind sspstrong uwtable
define internal i32 @virtio_pci_queue_mem_mult(ptr noundef %0) #4 {
  %2 = alloca ptr, align 8
  store ptr %0, ptr %2, align 8
  %3 = load ptr, ptr %2, align 8
  %4 = getelementptr inbounds nuw %struct.VirtIOPCIProxy, ptr %3, i32 0, i32 12
  %5 = load i32, ptr %4, align 4
  %6 = and i32 %5, 32
  %7 = icmp ne i32 %6, 0
  %8 = select i1 %7, i32 4096, i32 4
  ret i32 %8
}

; Function Attrs: inlinehint nounwind sspstrong uwtable
define internal zeroext i1 @virtio_pci_modern(ptr noundef %0) #4 {
  %2 = alloca ptr, align 8
  store ptr %0, ptr %2, align 8
  %3 = load ptr, ptr %2, align 8
  %4 = getelementptr inbounds nuw %struct.VirtIOPCIProxy, ptr %3, i32 0, i32 13
  %5 = load i8, ptr %4, align 8, !range !7, !noundef !8
  %6 = trunc i8 %5 to i1
  %7 = xor i1 %6, true
  ret i1 %7
}

; Function Attrs: inlinehint nounwind sspstrong uwtable
define internal zeroext i1 @virtio_pci_legacy(ptr noundef %0) #4 {
  %2 = alloca ptr, align 8
  store ptr %0, ptr %2, align 8
  %3 = load ptr, ptr %2, align 8
  %4 = getelementptr inbounds nuw %struct.VirtIOPCIProxy, ptr %3, i32 0, i32 15
  %5 = load i32, ptr %4, align 4
  %6 = icmp eq i32 %5, 2
  ret i1 %6
}

; Function Attrs: inlinehint nounwind sspstrong uwtable
define internal ptr @virtio_bus_get_device(ptr noundef %0) #4 {
  %2 = alloca ptr, align 8
  %3 = alloca ptr, align 8
  %4 = alloca ptr, align 8
  %5 = alloca ptr, align 8
  store ptr %0, ptr %2, align 8
  call void @llvm.lifetime.start.p0(i64 8, ptr %3) #13
  %6 = load ptr, ptr %2, align 8
  %7 = getelementptr inbounds nuw %struct.VirtioBusState, ptr %6, i32 0, i32 0
  store ptr %7, ptr %3, align 8
  call void @llvm.lifetime.start.p0(i64 8, ptr %4) #13
  %8 = load ptr, ptr %3, align 8
  %9 = getelementptr inbounds nuw %struct.BusState, ptr %8, i32 0, i32 8
  %10 = load ptr, ptr %9, align 8
  store ptr %10, ptr %4, align 8
  call void @llvm.lifetime.start.p0(i64 8, ptr %5) #13
  %11 = load ptr, ptr %4, align 8
  %12 = icmp ne ptr %11, null
  br i1 %12, label %13, label %17

13:                                               ; preds = %1
  %14 = load ptr, ptr %4, align 8
  %15 = getelementptr inbounds nuw %struct.BusChild, ptr %14, i32 0, i32 1
  %16 = load ptr, ptr %15, align 8
  br label %18

17:                                               ; preds = %1
  br label %18

18:                                               ; preds = %17, %13
  %19 = phi ptr [ %16, %13 ], [ null, %17 ]
  store ptr %19, ptr %5, align 8
  %20 = load ptr, ptr %5, align 8
  call void @llvm.lifetime.end.p0(i64 8, ptr %5) #13
  call void @llvm.lifetime.end.p0(i64 8, ptr %4) #13
  call void @llvm.lifetime.end.p0(i64 8, ptr %3) #13
  ret ptr %20
}

; Function Attrs: inlinehint nounwind sspstrong uwtable
define internal ptr @to_virtio_pci_proxy(ptr noundef %0) #4 {
  %2 = alloca ptr, align 8
  %3 = alloca ptr, align 8
  %4 = alloca ptr, align 8
  store ptr %0, ptr %2, align 8
  call void @llvm.lifetime.start.p0(i64 8, ptr %3) #13
  %5 = load ptr, ptr %2, align 8
  store ptr %5, ptr %3, align 8
  %6 = load ptr, ptr %3, align 8
  %7 = getelementptr inbounds i8, ptr %6, i64 0
  store ptr %7, ptr %4, align 8
  call void @llvm.lifetime.end.p0(i64 8, ptr %3) #13
  %8 = load ptr, ptr %4, align 8
  ret ptr %8
}

; Function Attrs: nounwind sspstrong uwtable
define internal i32 @virtio_pci_ioeventfd_assign(ptr noundef %0, ptr noundef %1, i32 noundef %2, i1 noundef zeroext %3) #0 {
  %5 = alloca ptr, align 8
  %6 = alloca ptr, align 8
  %7 = alloca i32, align 4
  %8 = alloca i8, align 1
  %9 = alloca ptr, align 8
  %10 = alloca ptr, align 8
  %11 = alloca ptr, align 8
  %12 = alloca i8, align 1
  %13 = alloca i8, align 1
  %14 = alloca i8, align 1
  %15 = alloca ptr, align 8
  %16 = alloca ptr, align 8
  %17 = alloca ptr, align 8
  %18 = alloca i64, align 8
  %19 = alloca i64, align 8
  store ptr %0, ptr %5, align 8
  store ptr %1, ptr %6, align 8
  store i32 %2, ptr %7, align 4
  %20 = zext i1 %3 to i8
  store i8 %20, ptr %8, align 1
  call void @llvm.lifetime.start.p0(i64 8, ptr %9) #13
  %21 = load ptr, ptr %5, align 8
  %22 = call ptr @to_virtio_pci_proxy(ptr noundef %21)
  store ptr %22, ptr %9, align 8
  call void @llvm.lifetime.start.p0(i64 8, ptr %10) #13
  %23 = load ptr, ptr %9, align 8
  %24 = getelementptr inbounds nuw %struct.VirtIOPCIProxy, ptr %23, i32 0, i32 25
  %25 = call ptr @virtio_bus_get_device(ptr noundef %24)
  store ptr %25, ptr %10, align 8
  call void @llvm.lifetime.start.p0(i64 8, ptr %11) #13
  %26 = load ptr, ptr %10, align 8
  %27 = load i32, ptr %7, align 4
  %28 = call ptr @virtio_get_queue(ptr noundef %26, i32 noundef %27)
  store ptr %28, ptr %11, align 8
  call void @llvm.lifetime.start.p0(i64 1, ptr %12) #13
  %29 = load ptr, ptr %9, align 8
  %30 = call zeroext i1 @virtio_pci_legacy(ptr noundef %29)
  %31 = zext i1 %30 to i8
  store i8 %31, ptr %12, align 1
  call void @llvm.lifetime.start.p0(i64 1, ptr %13) #13
  %32 = load ptr, ptr %9, align 8
  %33 = call zeroext i1 @virtio_pci_modern(ptr noundef %32)
  %34 = zext i1 %33 to i8
  store i8 %34, ptr %13, align 1
  call void @llvm.lifetime.start.p0(i64 1, ptr %14) #13
  %35 = load ptr, ptr %9, align 8
  %36 = getelementptr inbounds nuw %struct.VirtIOPCIProxy, ptr %35, i32 0, i32 12
  %37 = load i32, ptr %36, align 4
  %38 = and i32 %37, 8
  %39 = icmp ne i32 %38, 0
  %40 = zext i1 %39 to i8
  store i8 %40, ptr %14, align 1
  call void @llvm.lifetime.start.p0(i64 8, ptr %15) #13
  %41 = load ptr, ptr %9, align 8
  %42 = getelementptr inbounds nuw %struct.VirtIOPCIProxy, ptr %41, i32 0, i32 2
  %43 = getelementptr inbounds nuw %struct.anon.8, ptr %42, i32 0, i32 3
  %44 = getelementptr inbounds nuw %struct.VirtIOPCIRegion, ptr %43, i32 0, i32 0
  store ptr %44, ptr %15, align 8
  call void @llvm.lifetime.start.p0(i64 8, ptr %16) #13
  %45 = load ptr, ptr %9, align 8
  %46 = getelementptr inbounds nuw %struct.VirtIOPCIProxy, ptr %45, i32 0, i32 2
  %47 = getelementptr inbounds nuw %struct.anon.8, ptr %46, i32 0, i32 4
  %48 = getelementptr inbounds nuw %struct.VirtIOPCIRegion, ptr %47, i32 0, i32 0
  store ptr %48, ptr %16, align 8
  call void @llvm.lifetime.start.p0(i64 8, ptr %17) #13
  %49 = load ptr, ptr %9, align 8
  %50 = getelementptr inbounds nuw %struct.VirtIOPCIProxy, ptr %49, i32 0, i32 1
  store ptr %50, ptr %17, align 8
  call void @llvm.lifetime.start.p0(i64 8, ptr %18) #13
  %51 = load ptr, ptr %9, align 8
  %52 = call i32 @virtio_pci_queue_mem_mult(ptr noundef %51)
  %53 = load ptr, ptr %11, align 8
  %54 = call zeroext i16 @virtio_get_queue_index(ptr noundef %53)
  %55 = zext i16 %54 to i32
  %56 = mul i32 %52, %55
  %57 = sext i32 %56 to i64
  store i64 %57, ptr %18, align 8
  call void @llvm.lifetime.start.p0(i64 8, ptr %19) #13
  store i64 16, ptr %19, align 8
  %58 = load i8, ptr %8, align 1, !range !7, !noundef !8
  %59 = trunc i8 %58 to i1
  br i1 %59, label %60, label %87

60:                                               ; preds = %4
  %61 = load i8, ptr %13, align 1, !range !7, !noundef !8
  %62 = trunc i8 %61 to i1
  br i1 %62, label %63, label %77

63:                                               ; preds = %60
  %64 = load ptr, ptr %15, align 8
  %65 = load i64, ptr %18, align 8
  %66 = load i32, ptr %7, align 4
  %67 = sext i32 %66 to i64
  %68 = load ptr, ptr %6, align 8
  call void @memory_region_add_eventfd(ptr noundef %64, i64 noundef %65, i32 noundef 0, i1 noundef zeroext false, i64 noundef %67, ptr noundef %68)
  %69 = load i8, ptr %14, align 1, !range !7, !noundef !8
  %70 = trunc i8 %69 to i1
  br i1 %70, label %71, label %76

71:                                               ; preds = %63
  %72 = load ptr, ptr %16, align 8
  %73 = load i32, ptr %7, align 4
  %74 = sext i32 %73 to i64
  %75 = load ptr, ptr %6, align 8
  call void @memory_region_add_eventfd(ptr noundef %72, i64 noundef 0, i32 noundef 2, i1 noundef zeroext true, i64 noundef %74, ptr noundef %75)
  br label %76

76:                                               ; preds = %71, %63
  br label %77

77:                                               ; preds = %76, %60
  %78 = load i8, ptr %12, align 1, !range !7, !noundef !8
  %79 = trunc i8 %78 to i1
  br i1 %79, label %80, label %86

80:                                               ; preds = %77
  %81 = load ptr, ptr %17, align 8
  %82 = load i64, ptr %19, align 8
  %83 = load i32, ptr %7, align 4
  %84 = sext i32 %83 to i64
  %85 = load ptr, ptr %6, align 8
  call void @memory_region_add_eventfd(ptr noundef %81, i64 noundef %82, i32 noundef 2, i1 noundef zeroext true, i64 noundef %84, ptr noundef %85)
  br label %86

86:                                               ; preds = %80, %77
  br label %114

87:                                               ; preds = %4
  %88 = load i8, ptr %13, align 1, !range !7, !noundef !8
  %89 = trunc i8 %88 to i1
  br i1 %89, label %90, label %104

90:                                               ; preds = %87
  %91 = load ptr, ptr %15, align 8
  %92 = load i64, ptr %18, align 8
  %93 = load i32, ptr %7, align 4
  %94 = sext i32 %93 to i64
  %95 = load ptr, ptr %6, align 8
  call void @memory_region_del_eventfd(ptr noundef %91, i64 noundef %92, i32 noundef 0, i1 noundef zeroext false, i64 noundef %94, ptr noundef %95)
  %96 = load i8, ptr %14, align 1, !range !7, !noundef !8
  %97 = trunc i8 %96 to i1
  br i1 %97, label %98, label %103

98:                                               ; preds = %90
  %99 = load ptr, ptr %16, align 8
  %100 = load i32, ptr %7, align 4
  %101 = sext i32 %100 to i64
  %102 = load ptr, ptr %6, align 8
  call void @memory_region_del_eventfd(ptr noundef %99, i64 noundef 0, i32 noundef 2, i1 noundef zeroext true, i64 noundef %101, ptr noundef %102)
  br label %103

103:                                              ; preds = %98, %90
  br label %104

104:                                              ; preds = %103, %87
  %105 = load i8, ptr %12, align 1, !range !7, !noundef !8
  %106 = trunc i8 %105 to i1
  br i1 %106, label %107, label %113

107:                                              ; preds = %104
  %108 = load ptr, ptr %17, align 8
  %109 = load i64, ptr %19, align 8
  %110 = load i32, ptr %7, align 4
  %111 = sext i32 %110 to i64
  %112 = load ptr, ptr %6, align 8
  call void @memory_region_del_eventfd(ptr noundef %108, i64 noundef %109, i32 noundef 2, i1 noundef zeroext true, i64 noundef %111, ptr noundef %112)
  br label %113

113:                                              ; preds = %107, %104
  br label %114

114:                                              ; preds = %113, %86
  call void @llvm.lifetime.end.p0(i64 8, ptr %19) #13
  call void @llvm.lifetime.end.p0(i64 8, ptr %18) #13
  call void @llvm.lifetime.end.p0(i64 8, ptr %17) #13
  call void @llvm.lifetime.end.p0(i64 8, ptr %16) #13
  call void @llvm.lifetime.end.p0(i64 8, ptr %15) #13
  call void @llvm.lifetime.end.p0(i64 1, ptr %14) #13
  call void @llvm.lifetime.end.p0(i64 1, ptr %13) #13
  call void @llvm.lifetime.end.p0(i64 1, ptr %12) #13
  call void @llvm.lifetime.end.p0(i64 8, ptr %11) #13
  call void @llvm.lifetime.end.p0(i64 8, ptr %10) #13
  call void @llvm.lifetime.end.p0(i64 8, ptr %9) #13
  ret i32 0
}