; Function Attrs: nounwind sspstrong uwtable
define internal noundef i32 @virtio_pci_ioeventfd_assign(ptr noundef %0, ptr noundef %1, i32 noundef %2, i1 noundef zeroext %3) #0 {
  %5 = getelementptr i8, ptr %0, i64 34160
  %.val = load ptr, ptr %5, align 8
  %.not.i = icmp eq ptr %.val, null
  br i1 %.not.i, label %virtio_bus_get_device.exit, label %6

6:                                                ; preds = %4
  %7 = getelementptr inbounds nuw i8, ptr %.val, i64 16
  %8 = load ptr, ptr %7, align 8
  br label %virtio_bus_get_device.exit

virtio_bus_get_device.exit:                       ; preds = %4, %6
  %9 = phi ptr [ %8, %6 ], [ null, %4 ]
  %10 = tail call ptr @virtio_get_queue(ptr noundef %9, i32 noundef %2) #15
  %11 = getelementptr i8, ptr %0, i64 5356
  %.val42 = load i32, ptr %11, align 4
  %12 = icmp eq i32 %.val42, 2
  %13 = getelementptr i8, ptr %0, i64 5352
  %.val40 = load i8, ptr %13, align 8, !range !7, !noundef !6
  %14 = trunc nuw i8 %.val40 to i1
  %15 = getelementptr inbounds nuw i8, ptr %0, i64 5348
  %16 = load i32, ptr %15, align 4
  %17 = and i32 %16, 8
  %.not = icmp eq i32 %17, 0
  %18 = getelementptr inbounds nuw i8, ptr %0, i64 3888
  %19 = getelementptr inbounds nuw i8, ptr %0, i64 4176
  %20 = getelementptr inbounds nuw i8, ptr %0, i64 2752
  %21 = and i32 %16, 32
  %.not.i43 = icmp eq i32 %21, 0
  %22 = tail call zeroext i16 @virtio_get_queue_index(ptr noundef %10) #15
  %23 = zext i16 %22 to i32
  %24 = select i1 %.not.i43, i32 2, i32 12
  %25 = shl nuw nsw i32 %23, %24
  %26 = zext nneg i32 %25 to i64
  br i1 %3, label %27, label %34

27:                                               ; preds = %virtio_bus_get_device.exit
  br i1 %14, label %31, label %28

28:                                               ; preds = %27
  %29 = sext i32 %2 to i64
  tail call void @memory_region_add_eventfd(ptr noundef nonnull %18, i64 noundef %26, i32 noundef 0, i1 noundef zeroext false, i64 noundef %29, ptr noundef %1) #15
  br i1 %.not, label %31, label %30

30:                                               ; preds = %28
  tail call void @memory_region_add_eventfd(ptr noundef nonnull %19, i64 noundef 0, i32 noundef 2, i1 noundef zeroext true, i64 noundef %29, ptr noundef %1) #15
  br label %31

31:                                               ; preds = %28, %30, %27
  br i1 %12, label %32, label %41

32:                                               ; preds = %31
  %33 = sext i32 %2 to i64
  tail call void @memory_region_add_eventfd(ptr noundef nonnull %20, i64 noundef 16, i32 noundef 2, i1 noundef zeroext true, i64 noundef %33, ptr noundef %1) #15
  br label %41

34:                                               ; preds = %virtio_bus_get_device.exit
  br i1 %14, label %38, label %35

35:                                               ; preds = %34
  %36 = sext i32 %2 to i64
  tail call void @memory_region_del_eventfd(ptr noundef nonnull %18, i64 noundef %26, i32 noundef 0, i1 noundef zeroext false, i64 noundef %36, ptr noundef %1) #15
  br i1 %.not, label %38, label %37

37:                                               ; preds = %35
  tail call void @memory_region_del_eventfd(ptr noundef nonnull %19, i64 noundef 0, i32 noundef 2, i1 noundef zeroext true, i64 noundef %36, ptr noundef %1) #15
  br label %38

38:                                               ; preds = %35, %37, %34
  br i1 %12, label %39, label %41

39:                                               ; preds = %38
  %40 = sext i32 %2 to i64
  tail call void @memory_region_del_eventfd(ptr noundef nonnull %20, i64 noundef 16, i32 noundef 2, i1 noundef zeroext true, i64 noundef %40, ptr noundef %1) #15
  br label %41

41:                                               ; preds = %38, %39, %31, %32
  ret i32 0
}